target datalayout = "e-m:e-p270:32:32-p271:32:32-p272:64:64-i64:64-i128:128-f80:128-n8:16:32:64-S128"
target triple = "x86_64-unknown-linux-gnu"

%"class.absl::random_internal::PoolURBG.27" = type <{ i64, [2 x i16], [4 x i8] }>
%"class.absl::Span.29" = type { ptr, i64 }

; Function Attrs: mustprogress nounwind uwtable
define linkonce_odr dso_local void @_ZN4absl4SpanItEC2EPtm(ptr noundef nonnull align 8 dereferenceable(16) %this, ptr noundef %array, i64 noundef %length) unnamed_addr #5 comdat align 2 {
entry:
  %this.addr = alloca ptr, align 8
  %array.addr = alloca ptr, align 8
  %length.addr = alloca i64, align 8
  store ptr %this, ptr %this.addr, align 8
  store ptr %array, ptr %array.addr, align 8
  store i64 %length, ptr %length.addr, align 8
  %this1 = load ptr, ptr %this.addr, align 8
  %ptr_ = getelementptr inbounds %"class.absl::Span.29", ptr %this1, i32 0, i32 0
  %0 = load ptr, ptr %array.addr, align 8
  store ptr %0, ptr %ptr_, align 8
  %len_ = getelementptr inbounds %"class.absl::Span.29", ptr %this1, i32 0, i32 1
  %1 = load i64, ptr %length.addr, align 8
  store i64 %1, ptr %len_, align 8
  ret void
}

; Function Attrs: mustprogress nounwind uwtable
define linkonce_odr dso_local void @_ZN4absl15random_internal8PoolURBGItLm2EEC2ERKS2_(ptr noundef nonnull align 8 dereferenceable(12) %this, ptr noundef nonnull align 8 dereferenceable(12) %0) unnamed_addr #5 comdat align 2 {
entry:
  %this.addr = alloca ptr, align 8
  %.addr = alloca ptr, align 8
  store ptr %this, ptr %this.addr, align 8
  store ptr %0, ptr %.addr, align 8
  %this1 = load ptr, ptr %this.addr, align 8
  %next_ = getelementptr inbounds %"class.absl::random_internal::PoolURBG.27", ptr %this1, i32 0, i32 0
  store i64 3, ptr %next_, align 8
  ret void
}

; Function Attrs: mustprogress uwtable
define linkonce_odr dso_local noundef zeroext i16 @_ZN4absl15random_internal8PoolURBGItLm2EEclEv(ptr noundef nonnull align 8 dereferenceable(12) %this) #4 comdat align 2 {
entry:
  %this.addr = alloca ptr, align 8
  %agg.tmp = alloca %"class.absl::Span.29", align 8
  store ptr %this, ptr %this.addr, align 8
  %this1 = load ptr, ptr %this.addr, align 8
  %next_ = getelementptr inbounds %"class.absl::random_internal::PoolURBG.27", ptr %this1, i32 0, i32 0
  %0 = load i64, ptr %next_, align 8
  %cmp = icmp uge i64 %0, 2
  br i1 %cmp, label %if.then, label %if.end

if.then:                                          ; preds = %entry
  %next_2 = getelementptr inbounds %"class.absl::random_internal::PoolURBG.27", ptr %this1, i32 0, i32 0
  store i64 0, ptr %next_2, align 8
  %state_ = getelementptr inbounds %"class.absl::random_internal::PoolURBG.27", ptr %this1, i32 0, i32 1
  %arraydecay = getelementptr inbounds [2 x i16], ptr %state_, i64 0, i64 0
  %next_3 = getelementptr inbounds %"class.absl::random_internal::PoolURBG.27", ptr %this1, i32 0, i32 0
  %1 = load i64, ptr %next_3, align 8
  %add.ptr = getelementptr inbounds i16, ptr %arraydecay, i64 %1
  %next_4 = getelementptr inbounds %"class.absl::random_internal::PoolURBG.27", ptr %this1, i32 0, i32 0
  %2 = load i64, ptr %next_4, align 8
  %sub = sub i64 2, %2
  call void @_ZN4absl4SpanItEC2EPtm(ptr noundef nonnull align 8 dereferenceable(16) %agg.tmp, ptr noundef %add.ptr, i64 noundef %sub) #3
  %3 = getelementptr inbounds { ptr, i64 }, ptr %agg.tmp, i32 0, i32 0
  %4 = load ptr, ptr %3, align 8
  %5 = getelementptr inbounds { ptr, i64 }, ptr %agg.tmp, i32 0, i32 1
  %6 = load i64, ptr %5, align 8
  call void @_ZN4absl15random_internal10RandenPoolItE4FillENS_4SpanItEE(ptr %4, i64 %6)
  br label %if.end

if.end:                                           ; preds = %if.then, %entry
  %state_5 = getelementptr inbounds %"class.absl::random_internal::PoolURBG.27", ptr %this1, i32 0, i32 1
  %next_6 = getelementptr inbounds %"class.absl::random_internal::PoolURBG.27", ptr %this1, i32 0, i32 0
  %7 = load i64, ptr %next_6, align 8
  %inc = add i64 %7, 1
  store i64 %inc, ptr %next_6, align 8
  %arrayidx = getelementptr inbounds [2 x i16], ptr %state_5, i64 0, i64 %7
  %8 = load i16, ptr %arrayidx, align 2
  ret i16 %8
}

; Function Attrs: mustprogress nounwind uwtable
define linkonce_odr dso_local void @_ZN4absl15random_internal8PoolURBGItLm2EEC2Ev(ptr noundef nonnull align 8 dereferenceable(12) %this) unnamed_addr #5 comdat align 2 {
entry:
  %this.addr = alloca ptr, align 8
  store ptr %this, ptr %this.addr, align 8
  %this1 = load ptr, ptr %this.addr, align 8
  %next_ = getelementptr inbounds %"class.absl::random_internal::PoolURBG.27", ptr %this1, i32 0, i32 0
  store i64 3, ptr %next_, align 8
  ret void
}

; Function Attrs: mustprogress uwtable
define internal void @_ZN12_GLOBAL__N_136PoolURBGTypedTest_URBGInterface_TestIN4absl15random_internal8PoolURBGItLm2EEEE8TestBodyEv(ptr noundef nonnull align 8 dereferenceable(16) %this) unnamed_addr #4 align 2 {
entry:
  %this.addr = alloca ptr, align 8
  %e = alloca %"class.absl::random_internal::PoolURBG.27", align 8
  %x = alloca %"class.absl::random_internal::PoolURBG.27", align 8
  %u0 = alloca %"class.absl::random_internal::PoolURBG.27", align 8
  %u1 = alloca %"class.absl::random_internal::PoolURBG.27", align 8
  store ptr %this, ptr %this.addr, align 8
  call void @_ZN4absl15random_internal8PoolURBGItLm2EEC2Ev(ptr noundef nonnull align 8 dereferenceable(12) %e)
  call void @_ZN4absl15random_internal8PoolURBGItLm2EEC2Ev(ptr noundef nonnull align 8 dereferenceable(12) %x)
  %call = call noundef zeroext i16 @_ZN4absl15random_internal8PoolURBGItLm2EEclEv(ptr noundef nonnull align 8 dereferenceable(12) %e)
  call void @_ZN4absl15random_internal8PoolURBGItLm2EEC2ERKS2_(ptr noundef nonnull align 8 dereferenceable(12) %u0, ptr noundef nonnull align 8 dereferenceable(12) %x)
  %call2 = call noundef zeroext i16 @_ZN4absl15random_internal8PoolURBGItLm2EEclEv(ptr noundef nonnull align 8 dereferenceable(12) %u0)
  call void @_ZN4absl15random_internal8PoolURBGItLm2EEC2ERKS2_(ptr noundef nonnull align 8 dereferenceable(12) %u1, ptr noundef nonnull align 8 dereferenceable(12) %e)
  %call3 = call noundef zeroext i16 @_ZN4absl15random_internal8PoolURBGItLm2EEclEv(ptr noundef nonnull align 8 dereferenceable(12) %u1)
  ret void
}